target datalayout = "e-m:e-p270:32:32-p271:32:32-p272:64:64-i64:64-i128:128-f80:128-n8:16:32:64-S128"
target triple = "x86_64-unknown-linux-gnu"

%"class.llvh::StringRef" = type { ptr, i64 }
%"class.llvh::sys::path::reverse_iterator" = type <{ %"class.llvh::StringRef", %"class.llvh::StringRef", i64, i32, [4 x i8] }>

; Function Attrs: mustprogress nounwind uwtable
define linkonce_odr hidden void @_ZN4llvh9StringRefC2Ev(ptr noundef nonnull align 8 dereferenceable(16) %this) unnamed_addr #0 comdat align 2 {
entry:
  %this.addr = alloca ptr, align 8
  store ptr %this, ptr %this.addr, align 8
  %this1 = load ptr, ptr %this.addr, align 8
  %Data = getelementptr inbounds %"class.llvh::StringRef", ptr %this1, i32 0, i32 0
  store ptr null, ptr %Data, align 8
  %Length = getelementptr inbounds %"class.llvh::StringRef", ptr %this1, i32 0, i32 1
  store i64 0, ptr %Length, align 8
  ret void
}

; Function Attrs: mustprogress nounwind uwtable
define linkonce_odr noundef nonnull align 8 dereferenceable(8) ptr @_ZSt3minImERKT_S2_S2_(ptr noundef nonnull align 8 dereferenceable(8) %__a, ptr noundef nonnull align 8 dereferenceable(8) %__b) #0 comdat {
entry:
  %retval = alloca ptr, align 8
  %__a.addr = alloca ptr, align 8
  %__b.addr = alloca ptr, align 8
  store ptr %__a, ptr %__a.addr, align 8
  store ptr %__b, ptr %__b.addr, align 8
  %0 = load ptr, ptr %__b.addr, align 8
  %1 = load i64, ptr %0, align 8
  %2 = load ptr, ptr %__a.addr, align 8
  %3 = load i64, ptr %2, align 8
  %cmp = icmp ult i64 %1, %3
  br i1 %cmp, label %if.then, label %if.end

if.then:                                          ; preds = %entry
  %4 = load ptr, ptr %__b.addr, align 8
  store ptr %4, ptr %retval, align 8
  br label %return

if.end:                                           ; preds = %entry
  %5 = load ptr, ptr %__a.addr, align 8
  store ptr %5, ptr %retval, align 8
  br label %return

return:                                           ; preds = %if.end, %if.then
  %6 = load ptr, ptr %retval, align 8
  ret ptr %6
}

; Function Attrs: mustprogress nounwind uwtable
define linkonce_odr hidden void @_ZN4llvh3sys4path16reverse_iteratorC2Ev(ptr noundef nonnull align 8 dereferenceable(44) %this) unnamed_addr #0 comdat align 2 {
entry:
  %this.addr = alloca ptr, align 8
  store ptr %this, ptr %this.addr, align 8
  %this1 = load ptr, ptr %this.addr, align 8
  %Path = getelementptr inbounds %"class.llvh::sys::path::reverse_iterator", ptr %this1, i32 0, i32 0
  call void @_ZN4llvh9StringRefC2Ev(ptr noundef nonnull align 8 dereferenceable(16) %Path) #9
  %Component = getelementptr inbounds %"class.llvh::sys::path::reverse_iterator", ptr %this1, i32 0, i32 1
  call void @_ZN4llvh9StringRefC2Ev(ptr noundef nonnull align 8 dereferenceable(16) %Component) #9
  ret void
}

; Function Attrs: mustprogress nounwind uwtable
define hidden void @_ZN4llvh3sys4path4rendENS_9StringRefE(ptr noalias sret(%"class.llvh::sys::path::reverse_iterator") align 8 %agg.result, ptr %Path.coerce0, i64 %Path.coerce1) #0 {
entry:
  %this.addr.i2 = alloca ptr, align 8
  %data.addr.i = alloca ptr, align 8
  %length.addr.i = alloca i64, align 8
  %retval.i = alloca %"class.llvh::StringRef", align 8
  %this.addr.i = alloca ptr, align 8
  %Start.addr.i = alloca i64, align 8
  %N.addr.i = alloca i64, align 8
  %ref.tmp.i = alloca i64, align 8
  %Path = alloca %"class.llvh::StringRef", align 8
  %ref.tmp = alloca %"class.llvh::StringRef", align 8
  %0 = getelementptr inbounds { ptr, i64 }, ptr %Path, i32 0, i32 0
  store ptr %Path.coerce0, ptr %0, align 8
  %1 = getelementptr inbounds { ptr, i64 }, ptr %Path, i32 0, i32 1
  store i64 %Path.coerce1, ptr %1, align 8
  call void @_ZN4llvh3sys4path16reverse_iteratorC2Ev(ptr noundef nonnull align 8 dereferenceable(44) %agg.result) #9
  %Path1 = getelementptr inbounds %"class.llvh::sys::path::reverse_iterator", ptr %agg.result, i32 0, i32 0
  call void @llvm.memcpy.p0.p0.i64(ptr align 8 %Path1, ptr align 8 %Path, i64 16, i1 false)
  store ptr %Path, ptr %this.addr.i, align 8
  store i64 0, ptr %Start.addr.i, align 8
  store i64 0, ptr %N.addr.i, align 8
  %this1.i = load ptr, ptr %this.addr.i, align 8
  %Length.i = getelementptr inbounds %"class.llvh::StringRef", ptr %this1.i, i32 0, i32 1
  %call.i = call noundef nonnull align 8 dereferenceable(8) ptr @_ZSt3minImERKT_S2_S2_(ptr noundef nonnull align 8 dereferenceable(8) %Start.addr.i, ptr noundef nonnull align 8 dereferenceable(8) %Length.i)
  %2 = load i64, ptr %call.i, align 8
  store i64 %2, ptr %Start.addr.i, align 8
  %3 = load ptr, ptr %this1.i, align 8
  %4 = load i64, ptr %Start.addr.i, align 8
  %add.ptr.i = getelementptr inbounds i8, ptr %3, i64 %4
  %Length2.i = getelementptr inbounds %"class.llvh::StringRef", ptr %this1.i, i32 0, i32 1
  %5 = load i64, ptr %Length2.i, align 8
  %6 = load i64, ptr %Start.addr.i, align 8
  %sub.i = sub i64 %5, %6
  store i64 %sub.i, ptr %ref.tmp.i, align 8
  %call3.i = call noundef nonnull align 8 dereferenceable(8) ptr @_ZSt3minImERKT_S2_S2_(ptr noundef nonnull align 8 dereferenceable(8) %N.addr.i, ptr noundef nonnull align 8 dereferenceable(8) %ref.tmp.i)
  %7 = load i64, ptr %call3.i, align 8
  store ptr %retval.i, ptr %this.addr.i2, align 8
  store ptr %add.ptr.i, ptr %data.addr.i, align 8
  store i64 %7, ptr %length.addr.i, align 8
  %this1.i3 = load ptr, ptr %this.addr.i2, align 8
  %8 = load ptr, ptr %data.addr.i, align 8
  store ptr %8, ptr %this1.i3, align 8
  %Length.i4 = getelementptr inbounds %"class.llvh::StringRef", ptr %this1.i3, i32 0, i32 1
  %9 = load i64, ptr %length.addr.i, align 8
  store i64 %9, ptr %Length.i4, align 8
  %10 = load { ptr, i64 }, ptr %retval.i, align 8
  %11 = getelementptr inbounds { ptr, i64 }, ptr %ref.tmp, i32 0, i32 0
  %12 = extractvalue { ptr, i64 } %10, 0
  store ptr %12, ptr %11, align 8
  %13 = getelementptr inbounds { ptr, i64 }, ptr %ref.tmp, i32 0, i32 1
  %14 = extractvalue { ptr, i64 } %10, 1
  store i64 %14, ptr %13, align 8
  %Component = getelementptr inbounds %"class.llvh::sys::path::reverse_iterator", ptr %agg.result, i32 0, i32 1
  call void @llvm.memcpy.p0.p0.i64(ptr align 8 %Component, ptr align 8 %ref.tmp, i64 16, i1 false)
  %Position = getelementptr inbounds %"class.llvh::sys::path::reverse_iterator", ptr %agg.result, i32 0, i32 2
  store i64 0, ptr %Position, align 8
  ret void
}