; Function Attrs: mustprogress nofree norecurse nosync nounwind willreturn memory(argmem: write) uwtable
define hidden void @_ZN4llvh3sys4path4rendENS_9StringRefE(ptr noalias nocapture writeonly sret(%"class.llvh::sys::path::reverse_iterator") align 8 %agg.result, ptr %Path.coerce0, i64 %Path.coerce1) local_unnamed_addr #2 {
entry:
  store ptr %Path.coerce0, ptr %agg.result, align 8
  %Path.sroa.3.0.agg.result.sroa_idx = getelementptr inbounds i8, ptr %agg.result, i64 8
  store i64 %Path.coerce1, ptr %Path.sroa.3.0.agg.result.sroa_idx, align 8
  %Component = getelementptr inbounds i8, ptr %agg.result, i64 16
  store ptr %Path.coerce0, ptr %Component, align 8
  %ref.tmp.sroa.2.0.Component.sroa_idx = getelementptr inbounds i8, ptr %agg.result, i64 24
  tail call void @llvm.memset.p0.i64(ptr noundef nonnull align 8 dereferenceable(16) %ref.tmp.sroa.2.0.Component.sroa_idx, i8 0, i64 16, i1 false)
  ret void
}